target datalayout = "e-m:e-p270:32:32-p271:32:32-p272:64:64-i64:64-i128:128-f80:128-n8:16:32:64-S128"
target triple = "x86_64-pc-linux-gnu"

%struct.JNINativeInterface_ = type { ptr, ptr, ptr, ptr, ptr, ptr, ptr, ptr, ptr, ptr, ptr, ptr, ptr, ptr, ptr, ptr, ptr, ptr, ptr, ptr, ptr, ptr, ptr, ptr, ptr, ptr, ptr, ptr, ptr, ptr, ptr, ptr, ptr, ptr, ptr, ptr, ptr, ptr, ptr, ptr, ptr, ptr, ptr, ptr, ptr, ptr, ptr, ptr, ptr, ptr, ptr, ptr, ptr, ptr, ptr, ptr, ptr, ptr, ptr, ptr, ptr, ptr, ptr, ptr, ptr, ptr, ptr, ptr, ptr, ptr, ptr, ptr, ptr, ptr, ptr, ptr, ptr, ptr, ptr, ptr, ptr, ptr, ptr, ptr, ptr, ptr, ptr, ptr, ptr, ptr, ptr, ptr, ptr, ptr, ptr, ptr, ptr, ptr, ptr, ptr, ptr, ptr, ptr, ptr, ptr, ptr, ptr, ptr, ptr, ptr, ptr, ptr, ptr, ptr, ptr, ptr, ptr, ptr, ptr, ptr, ptr, ptr, ptr, ptr, ptr, ptr, ptr, ptr, ptr, ptr, ptr, ptr, ptr, ptr, ptr, ptr, ptr, ptr, ptr, ptr, ptr, ptr, ptr, ptr, ptr, ptr, ptr, ptr, ptr, ptr, ptr, ptr, ptr, ptr, ptr, ptr, ptr, ptr, ptr, ptr, ptr, ptr, ptr, ptr, ptr, ptr, ptr, ptr, ptr, ptr, ptr, ptr, ptr, ptr, ptr, ptr, ptr, ptr, ptr, ptr, ptr, ptr, ptr, ptr, ptr, ptr, ptr, ptr, ptr, ptr, ptr, ptr, ptr, ptr, ptr, ptr, ptr, ptr, ptr, ptr, ptr, ptr, ptr, ptr, ptr, ptr, ptr, ptr, ptr, ptr, ptr, ptr, ptr, ptr, ptr, ptr, ptr, ptr, ptr, ptr, ptr, ptr, ptr, ptr, ptr, ptr, ptr, ptr, ptr, ptr, ptr, ptr, ptr, ptr, ptr }
%struct.XIMCallback = type { ptr, ptr }

@dpy = hidden global ptr null, align 8
@tkClass = external global ptr, align 8
@awtLockMID = external global ptr, align 8
@awtUnlockMID = external global ptr, align 8
@X11im = internal global ptr null, align 8
@.str.13 = private unnamed_addr constant [16 x i8] c"destroyCallback\00", align 1

; Function Attrs: nounwind uwtable
define internal void @OpenXIMCallback(ptr noundef %0, ptr noundef %1, ptr noundef %2) #0 {
  %4 = alloca ptr, align 8
  %5 = alloca ptr, align 8
  %6 = alloca ptr, align 8
  %7 = alloca %struct.XIMCallback, align 8
  store ptr %0, ptr %4, align 8
  store ptr %1, ptr %5, align 8
  store ptr %2, ptr %6, align 8
  %8 = load ptr, ptr %4, align 8
  %9 = call ptr @XOpenIM(ptr noundef %8, ptr noundef null, ptr noundef null, ptr noundef null)
  store ptr %9, ptr @X11im, align 8
  %10 = load ptr, ptr @X11im, align 8
  %11 = icmp eq ptr %10, null
  br i1 %11, label %12, label %13

12:                                               ; preds = %3
  br label %18

13:                                               ; preds = %3
  %14 = getelementptr inbounds %struct.XIMCallback, ptr %7, i32 0, i32 1
  store ptr @DestroyXIMCallback, ptr %14, align 8
  %15 = getelementptr inbounds %struct.XIMCallback, ptr %7, i32 0, i32 0
  store ptr null, ptr %15, align 8
  %16 = load ptr, ptr @X11im, align 8
  %17 = call ptr (ptr, ...) @XSetIMValues(ptr noundef %16, ptr noundef @.str.13, ptr noundef %7, ptr noundef null)
  br label %18

18:                                               ; preds = %13, %12
  ret void
}

; Function Attrs: nounwind uwtable
define zeroext i8 @Java_sun_awt_X11_XInputMethod_openXIMNative(ptr noundef %0, ptr noundef %1, i64 noundef %2) #0 {
  %4 = alloca ptr, align 8
  %5 = alloca ptr, align 8
  %6 = alloca i64, align 8
  %7 = alloca i32, align 4
  %8 = alloca ptr, align 8
  store ptr %0, ptr %4, align 8
  store ptr %1, ptr %5, align 8
  store i64 %2, ptr %6, align 8
  br label %9

9:                                                ; preds = %3
  %10 = load ptr, ptr %4, align 8
  %11 = load ptr, ptr %10, align 8
  %12 = getelementptr inbounds %struct.JNINativeInterface_, ptr %11, i32 0, i32 228
  %13 = load ptr, ptr %12, align 8
  %14 = load ptr, ptr %4, align 8
  %15 = call zeroext i8 %13(ptr noundef %14)
  %16 = icmp ne i8 %15, 0
  br i1 %16, label %17, label %23

17:                                               ; preds = %9
  %18 = load ptr, ptr %4, align 8
  %19 = load ptr, ptr %18, align 8
  %20 = getelementptr inbounds %struct.JNINativeInterface_, ptr %19, i32 0, i32 17
  %21 = load ptr, ptr %20, align 8
  %22 = load ptr, ptr %4, align 8
  call void %21(ptr noundef %22)
  br label %23

23:                                               ; preds = %17, %9
  %24 = load ptr, ptr %4, align 8
  %25 = load ptr, ptr %24, align 8
  %26 = getelementptr inbounds %struct.JNINativeInterface_, ptr %25, i32 0, i32 141
  %27 = load ptr, ptr %26, align 8
  %28 = load ptr, ptr %4, align 8
  %29 = load ptr, ptr @tkClass, align 8
  %30 = load ptr, ptr @awtLockMID, align 8
  call void (ptr, ptr, ptr, ...) %27(ptr noundef %28, ptr noundef %29, ptr noundef %30)
  %31 = load ptr, ptr %4, align 8
  %32 = load ptr, ptr %31, align 8
  %33 = getelementptr inbounds %struct.JNINativeInterface_, ptr %32, i32 0, i32 228
  %34 = load ptr, ptr %33, align 8
  %35 = load ptr, ptr %4, align 8
  %36 = call zeroext i8 %34(ptr noundef %35)
  %37 = icmp ne i8 %36, 0
  br i1 %37, label %38, label %44

38:                                               ; preds = %23
  %39 = load ptr, ptr %4, align 8
  %40 = load ptr, ptr %39, align 8
  %41 = getelementptr inbounds %struct.JNINativeInterface_, ptr %40, i32 0, i32 17
  %42 = load ptr, ptr %41, align 8
  %43 = load ptr, ptr %4, align 8
  call void %42(ptr noundef %43)
  br label %44

44:                                               ; preds = %38, %23
  br label %45

45:                                               ; preds = %44
  %46 = load i64, ptr %6, align 8
  %47 = inttoptr i64 %46 to ptr
  store ptr %47, ptr @dpy, align 8
  %48 = load ptr, ptr @dpy, align 8
  %49 = call i32 @XRegisterIMInstantiateCallback(ptr noundef %48, ptr noundef null, ptr noundef null, ptr noundef null, ptr noundef @OpenXIMCallback, ptr noundef null)
  store i32 %49, ptr %7, align 4
  %50 = load i32, ptr %7, align 4
  %51 = icmp ne i32 %50, 0
  br i1 %51, label %54, label %52

52:                                               ; preds = %45
  %53 = load ptr, ptr @dpy, align 8
  call void @OpenXIMCallback(ptr noundef %53, ptr noundef null, ptr noundef null)
  br label %54

54:                                               ; preds = %52, %45
  br label %55

55:                                               ; preds = %54
  call void (...) @awt_output_flush()
  br label %56

56:                                               ; preds = %55
  %57 = load ptr, ptr %4, align 8
  %58 = load ptr, ptr %57, align 8
  %59 = getelementptr inbounds %struct.JNINativeInterface_, ptr %58, i32 0, i32 15
  %60 = load ptr, ptr %59, align 8
  %61 = load ptr, ptr %4, align 8
  %62 = call ptr %60(ptr noundef %61)
  store ptr %62, ptr %8, align 8
  %63 = icmp ne ptr %62, null
  br i1 %63, label %64, label %70

64:                                               ; preds = %56
  %65 = load ptr, ptr %4, align 8
  %66 = load ptr, ptr %65, align 8
  %67 = getelementptr inbounds %struct.JNINativeInterface_, ptr %66, i32 0, i32 17
  %68 = load ptr, ptr %67, align 8
  %69 = load ptr, ptr %4, align 8
  call void %68(ptr noundef %69)
  br label %70

70:                                               ; preds = %64, %56
  %71 = load ptr, ptr %4, align 8
  %72 = load ptr, ptr %71, align 8
  %73 = getelementptr inbounds %struct.JNINativeInterface_, ptr %72, i32 0, i32 141
  %74 = load ptr, ptr %73, align 8
  %75 = load ptr, ptr %4, align 8
  %76 = load ptr, ptr @tkClass, align 8
  %77 = load ptr, ptr @awtUnlockMID, align 8
  call void (ptr, ptr, ptr, ...) %74(ptr noundef %75, ptr noundef %76, ptr noundef %77)
  %78 = load ptr, ptr %4, align 8
  %79 = load ptr, ptr %78, align 8
  %80 = getelementptr inbounds %struct.JNINativeInterface_, ptr %79, i32 0, i32 228
  %81 = load ptr, ptr %80, align 8
  %82 = load ptr, ptr %4, align 8
  %83 = call zeroext i8 %81(ptr noundef %82)
  %84 = icmp ne i8 %83, 0
  br i1 %84, label %85, label %91

85:                                               ; preds = %70
  %86 = load ptr, ptr %4, align 8
  %87 = load ptr, ptr %86, align 8
  %88 = getelementptr inbounds %struct.JNINativeInterface_, ptr %87, i32 0, i32 17
  %89 = load ptr, ptr %88, align 8
  %90 = load ptr, ptr %4, align 8
  call void %89(ptr noundef %90)
  br label %91

91:                                               ; preds = %85, %70
  %92 = load ptr, ptr %8, align 8
  %93 = icmp ne ptr %92, null
  br i1 %93, label %94, label %102

94:                                               ; preds = %91
  %95 = load ptr, ptr %4, align 8
  %96 = load ptr, ptr %95, align 8
  %97 = getelementptr inbounds %struct.JNINativeInterface_, ptr %96, i32 0, i32 13
  %98 = load ptr, ptr %97, align 8
  %99 = load ptr, ptr %4, align 8
  %100 = load ptr, ptr %8, align 8
  %101 = call i32 %98(ptr noundef %99, ptr noundef %100)
  br label %102

102:                                              ; preds = %94, %91
  br label %103

103:                                              ; preds = %102
  br label %104

104:                                              ; preds = %103
  ret i8 1
}