; Function Attrs: nounwind uwtable
define noundef zeroext i8 @Java_sun_awt_X11_XInputMethod_openXIMNative(ptr noundef %0, ptr nocapture noundef readnone %1, i64 noundef %2) local_unnamed_addr #2 {
  %4 = alloca %struct.XIMCallback, align 8
  %5 = load ptr, ptr %0, align 8
  %6 = getelementptr inbounds i8, ptr %5, i64 1824
  %7 = load ptr, ptr %6, align 8
  %8 = tail call zeroext i8 %7(ptr noundef nonnull %0) #14
  %.not = icmp eq i8 %8, 0
  br i1 %.not, label %13, label %9

9:                                                ; preds = %3
  %10 = load ptr, ptr %0, align 8
  %11 = getelementptr inbounds i8, ptr %10, i64 136
  %12 = load ptr, ptr %11, align 8
  tail call void %12(ptr noundef nonnull %0) #14
  br label %13

13:                                               ; preds = %9, %3
  %14 = load ptr, ptr %0, align 8
  %15 = getelementptr inbounds i8, ptr %14, i64 1128
  %16 = load ptr, ptr %15, align 8
  %17 = load ptr, ptr @tkClass, align 8
  %18 = load ptr, ptr @awtLockMID, align 8
  tail call void (ptr, ptr, ptr, ...) %16(ptr noundef nonnull %0, ptr noundef %17, ptr noundef %18) #14
  %19 = load ptr, ptr %0, align 8
  %20 = getelementptr inbounds i8, ptr %19, i64 1824
  %21 = load ptr, ptr %20, align 8
  %22 = tail call zeroext i8 %21(ptr noundef nonnull %0) #14
  %.not25 = icmp eq i8 %22, 0
  br i1 %.not25, label %27, label %23

23:                                               ; preds = %13
  %24 = load ptr, ptr %0, align 8
  %25 = getelementptr inbounds i8, ptr %24, i64 136
  %26 = load ptr, ptr %25, align 8
  tail call void %26(ptr noundef nonnull %0) #14
  br label %27

27:                                               ; preds = %13, %23
  %28 = inttoptr i64 %2 to ptr
  store ptr %28, ptr @dpy, align 8
  %29 = tail call i32 @XRegisterIMInstantiateCallback(ptr noundef %28, ptr noundef null, ptr noundef null, ptr noundef null, ptr noundef nonnull @OpenXIMCallback, ptr noundef null) #14
  %.not26 = icmp eq i32 %29, 0
  br i1 %.not26, label %30, label %37

30:                                               ; preds = %27
  %31 = load ptr, ptr @dpy, align 8
  call void @llvm.lifetime.start.p0(i64 16, ptr nonnull %4)
  %32 = tail call ptr @XOpenIM(ptr noundef %31, ptr noundef null, ptr noundef null, ptr noundef null) #14
  store ptr %32, ptr @X11im, align 8
  %33 = icmp eq ptr %32, null
  br i1 %33, label %OpenXIMCallback.exit, label %34

34:                                               ; preds = %30
  %35 = getelementptr inbounds i8, ptr %4, i64 8
  store ptr @DestroyXIMCallback, ptr %35, align 8
  store ptr null, ptr %4, align 8
  %36 = call ptr (ptr, ...) @XSetIMValues(ptr noundef nonnull %32, ptr noundef nonnull @.str.13, ptr noundef nonnull %4, ptr noundef null) #14
  br label %OpenXIMCallback.exit

OpenXIMCallback.exit:                             ; preds = %30, %34
  call void @llvm.lifetime.end.p0(i64 16, ptr nonnull %4)
  br label %37

37:                                               ; preds = %27, %OpenXIMCallback.exit
  call void (...) @awt_output_flush() #14
  %38 = load ptr, ptr %0, align 8
  %39 = getelementptr inbounds i8, ptr %38, i64 120
  %40 = load ptr, ptr %39, align 8
  %41 = call ptr %40(ptr noundef nonnull %0) #14
  %.not27 = icmp eq ptr %41, null
  br i1 %.not27, label %46, label %42

42:                                               ; preds = %37
  %43 = load ptr, ptr %0, align 8
  %44 = getelementptr inbounds i8, ptr %43, i64 136
  %45 = load ptr, ptr %44, align 8
  call void %45(ptr noundef nonnull %0) #14
  br label %46

46:                                               ; preds = %42, %37
  %47 = load ptr, ptr %0, align 8
  %48 = getelementptr inbounds i8, ptr %47, i64 1128
  %49 = load ptr, ptr %48, align 8
  %50 = load ptr, ptr @tkClass, align 8
  %51 = load ptr, ptr @awtUnlockMID, align 8
  call void (ptr, ptr, ptr, ...) %49(ptr noundef nonnull %0, ptr noundef %50, ptr noundef %51) #14
  %52 = load ptr, ptr %0, align 8
  %53 = getelementptr inbounds i8, ptr %52, i64 1824
  %54 = load ptr, ptr %53, align 8
  %55 = call zeroext i8 %54(ptr noundef nonnull %0) #14
  %.not28 = icmp eq i8 %55, 0
  br i1 %.not28, label %60, label %56

56:                                               ; preds = %46
  %57 = load ptr, ptr %0, align 8
  %58 = getelementptr inbounds i8, ptr %57, i64 136
  %59 = load ptr, ptr %58, align 8
  call void %59(ptr noundef nonnull %0) #14
  br label %60

60:                                               ; preds = %56, %46
  br i1 %.not27, label %66, label %61

61:                                               ; preds = %60
  %62 = load ptr, ptr %0, align 8
  %63 = getelementptr inbounds i8, ptr %62, i64 104
  %64 = load ptr, ptr %63, align 8
  %65 = call i32 %64(ptr noundef nonnull %0, ptr noundef nonnull %41) #14
  br label %66

66:                                               ; preds = %61, %60
  ret i8 1
}